; Function Attrs: nounwind uwtable
define range(i32 -2147483648, 1) i32 @wc_ecc_shared_secret(ptr noundef %private_key, ptr noundef %public_key, ptr noundef %out, ptr noundef %outlen) local_unnamed_addr #2 {
entry:
  %cmp = icmp eq ptr %private_key, null
  %cmp1 = icmp eq ptr %public_key, null
  %or.cond = or i1 %cmp, %cmp1
  %cmp3 = icmp eq ptr %out, null
  %or.cond1 = or i1 %or.cond, %cmp3
  %cmp5 = icmp eq ptr %outlen, null
  %or.cond2 = or i1 %or.cond1, %cmp5
  br i1 %or.cond2, label %return, label %if.end

if.end:                                           ; preds = %entry
  %0 = load i32, ptr %private_key, align 8
  %1 = and i32 %0, -2
  %switch = icmp eq i32 %1, 2
  br i1 %switch, label %if.end10, label %return

if.end10:                                         ; preds = %if.end
  %idx = getelementptr inbounds nuw i8, ptr %private_key, i64 4
  %2 = load i32, ptr %idx, align 4
  %3 = add i32 %2, -5
  %narrow.i = icmp ult i32 %3, -6
  br i1 %narrow.i, label %return, label %lor.lhs.false12

lor.lhs.false12:                                  ; preds = %if.end10
  %dp = getelementptr inbounds nuw i8, ptr %private_key, i64 16
  %4 = load ptr, ptr %dp, align 8
  %cmp13 = icmp eq ptr %4, null
  br i1 %cmp13, label %return, label %lor.lhs.false14

lor.lhs.false14:                                  ; preds = %lor.lhs.false12
  %idx15 = getelementptr inbounds nuw i8, ptr %public_key, i64 4
  %5 = load i32, ptr %idx15, align 4
  %6 = add i32 %5, -5
  %narrow.i16 = icmp ult i32 %6, -6
  br i1 %narrow.i16, label %return, label %lor.lhs.false18

lor.lhs.false18:                                  ; preds = %lor.lhs.false14
  %dp19 = getelementptr inbounds nuw i8, ptr %public_key, i64 16
  %7 = load ptr, ptr %dp19, align 8
  %cmp20 = icmp eq ptr %7, null
  br i1 %cmp20, label %return, label %if.end22

if.end22:                                         ; preds = %lor.lhs.false18
  %id = getelementptr inbounds nuw i8, ptr %4, i64 4
  %8 = load i32, ptr %id, align 4
  %id25 = getelementptr inbounds nuw i8, ptr %7, i64 4
  %9 = load i32, ptr %id25, align 4
  %cmp26.not = icmp eq i32 %8, %9
  br i1 %cmp26.not, label %if.end28, label %return

if.end28:                                         ; preds = %if.end22
  %pubkey = getelementptr inbounds nuw i8, ptr %public_key, i64 32
  %call29 = tail call i32 @wc_ecc_shared_secret_ex(ptr noundef nonnull %private_key, ptr noundef nonnull %pubkey, ptr noundef nonnull %out, ptr noundef nonnull %outlen)
  br label %return

return:                                           ; preds = %if.end, %if.end22, %if.end10, %lor.lhs.false12, %lor.lhs.false14, %lor.lhs.false18, %entry, %if.end28
  %retval.0 = phi i32 [ %call29, %if.end28 ], [ -173, %entry ], [ -170, %if.end ], [ -170, %lor.lhs.false18 ], [ -170, %lor.lhs.false14 ], [ -170, %lor.lhs.false12 ], [ -170, %if.end10 ], [ -170, %if.end22 ]
  ret i32 %retval.0
}